Certificate:
    Data:
        Version: 3 (0x2)
        Serial Number: 1 (0x1)
    Signature Algorithm: sha256WithRSAEncryption
        Issuer: C=US, ST=Denial, L=Boston, O=Eugenes Tech, CN=Kovalev Systems CA
        Validity
            Not Before: Feb 19 07:33:12 2018 GMT
            Not After : Feb 19 07:33:12 2019 GMT
        Subject: C=US, ST=Denial, L=Boston, O=Eugenes Tech, CN=Mallory
        Subject Public Key Info:
            Public Key Algorithm: rsaEncryption
                Public-Key: (4096 bit)
                Modulus:
                    00:ba:6b:b4:08:c4:35:e5:be:f3:8f:3b:75:2c:06:
                    34:19:4d:a7:3c:64:8d:1a:4c:76:78:66:90:bc:5b:
                    c3:4c:50:2c:ae:13:23:a0:9b:9c:37:bf:c8:72:29:
                    81:0c:ae:ba:07:78:7d:22:7b:c2:f7:46:94:fa:e5:
                    6d:0b:e7:ea:c2:23:6c:d6:4b:7d:b9:08:8f:06:1b:
                    9f:6e:be:5c:0c:29:f9:0a:ff:11:5b:7f:9f:60:67:
                    f9:55:1b:be:b3:0f:2d:e7:b9:64:f4:f6:d1:3c:eb:
                    29:39:8e:e1:2b:76:62:dd:6a:41:39:d4:c1:0e:91:
                    04:a1:97:c6:68:0d:86:92:29:c0:6b:b9:d2:bd:23:
                    eb:84:49:56:c2:1f:a0:d4:a8:b6:e1:14:0a:3c:7b:
                    aa:ea:a3:7a:66:15:a5:eb:f2:c1:4e:c1:f3:e9:d9:
                    00:99:48:77:94:16:d4:f5:fc:b3:e7:ea:6b:86:c4:
                    69:28:cd:e5:6e:1c:bd:6f:30:ac:c2:b4:3f:49:fd:
                    a5:17:2d:47:e0:16:06:cc:3a:f9:cf:db:46:72:40:
                    7c:bb:e8:df:ec:93:9f:2b:3c:9d:bd:a5:10:9d:85:
                    69:7d:6c:4c:6a:4d:f6:7c:27:6d:6d:b2:ac:b5:28:
                    bd:67:f5:98:aa:f7:ed:5a:d9:75:38:f2:d8:d1:f1:
                    e4:94:a7:cf:ff:c6:18:5d:ac:80:e3:ec:8c:56:49:
                    b5:67:f2:79:3a:70:0d:e7:db:95:bc:c1:5d:0d:e2:
                    ba:cf:e6:06:72:24:8f:47:ff:6e:c2:82:e7:2f:0b:
                    38:91:9d:f3:dd:2e:06:5a:c7:19:81:7d:a2:96:03:
                    40:9a:49:8f:e0:24:36:80:cb:59:af:84:10:9d:5f:
                    ed:bf:71:d2:43:b1:38:fb:e6:3f:3d:16:37:80:0e:
                    eb:9a:36:60:cf:04:48:80:8e:35:4d:bb:0d:5f:d4:
                    75:11:62:63:3a:e1:b5:39:42:cb:69:be:4e:d5:53:
                    65:1f:09:fe:19:6d:a3:d3:ab:01:f0:7b:fe:0d:3d:
                    1a:78:c3:f4:b6:1d:77:e2:9b:04:96:ab:45:c4:73:
                    69:3b:9d:2f:3e:e2:a2:6c:5f:4b:89:cf:e5:e5:4e:
                    27:ed:de:97:94:b7:2a:14:81:ed:c7:85:05:00:15:
                    d8:8f:7f:bb:9f:3e:3a:05:4f:c1:69:ba:2f:f7:a2:
                    c5:81:74:36:ef:ab:0c:77:1d:5d:2b:55:3c:b5:37:
                    2f:62:3e:f5:de:d8:a6:2c:c7:10:16:7f:ae:e9:29:
                    48:2a:fc:31:ae:db:f6:94:be:d8:88:b3:74:dc:26:
                    39:ec:cd:2a:b8:94:72:37:7b:8c:c6:9c:34:8a:bf:
                    b1:de:ed
                Exponent: 65537 (0x10001)
        X509v3 extensions:
            X509v3 Basic Constraints: 
                CA:FALSE
            X509v3 Key Usage: 
                Digital Signature, Key Encipherment
            X509v3 Subject Key Identifier: 
                47:0D:01:15:85:FC:74:3D:E9:E1:9D:5F:7B:E2:D7:01:23:0C:F8:76
    Signature Algorithm: sha256WithRSAEncryption
         4c:0f:d4:d8:4a:86:dc:ea:9e:54:ee:a9:8f:94:d4:d2:89:bc:
         50:ab:65:2f:43:a2:d6:f8:7f:7e:40:75:8b:47:bc:fc:db:80:
         db:a0:80:97:b2:d1:0f:2c:e8:3c:9b:9e:13:66:5a:5f:e7:5f:
         ce:d6:8f:ca:37:ce:fd:02:7d:14:a2:22:77:3d:09:bc:17:8c:
         8b:65:21:c8:d0:93:31:9b:9b:c8:a2:7e:5a:4c:38:77:1e:3d:
         d3:66:4f:ee:42:33:2b:a8:66:80:d5:70:1f:02:04:54:42:4f:
         c7:6f:47:d5:8f:8a:2f:34:8d:c8:13:45:e7:72:58:cd:09:14:
         77:69:52:32:07:4d:2a:d3:4e:bf:fa:34:20:67:33:7a:f5:02:
         22:03:9e:ab:f4:99:fa:7c:f9:ba:87:51:53:26:3b:cf:92:05:
         9c:c0:43:88:14:0e:53:cd:b8:83:d0:ce:85:64:80:59:80:33:
         fd:b8:db:9f:a9:6f:4b:ed:84:fe:3d:f8:15:f4:9c:1b:ee:5e:
         ba:d9:06:50:6f:31:03:57:2d:6f:15:f8:dd:44:66:bb:81:04:
         58:17:f7:0f:7b:86:51:7b:90:bb:db:aa:da:9d:c5:af:37:5f:
         40:77:88:aa:85:3f:e5:c1:23:1f:09:bd:0a:3a:37:34:2d:a3:
         f3:ca:96:23:dd:69:ea:98:b0:a1:46:7a:3c:c4:8e:0e:92:d7:
         f2:53:fe:51:f6:80:d4:95:52:cb:4f:f6:ef:28:1a:14:e8:82:
         e3:4b:d5:2e:dc:b9:8f:eb:c5:26:35:63:3f:61:20:51:8e:fe:
         93:71:3e:f6:da:ff:98:86:db:aa:02:92:5e:be:0d:9e:87:d0:
         9a:d3:86:1b:f0:17:d1:77:60:20:ba:c7:aa:5e:a2:16:b7:ad:
         c5:b6:73:04:62:b9:75:6e:ce:98:13:61:c8:18:63:ed:ce:85:
         2a:ad:6a:0d:32:49:c4:c4:b4:42:a5:1c:ae:8e:c1:08:7e:71:
         62:4f:9d:18:9f:bc:8b:97:16:94:05:c9:96:ec:95:36:82:dc:
         30:cc:cf:3c:b5:7d:f1:18:e7:03:5c:06:78:18:30:f7:16:47:
         2e:6f:8d:07:f7:d5:db:be:49:4b:3f:c6:ed:2e:8c:ad:f4:22:
         81:3d:b5:c6:a7:4b:90:39:13:22:cc:fa:a7:fc:b0:96:25:3c:
         cd:be:89:1e:70:70:af:b7:85:98:3b:d1:4b:e9:65:91:11:2b:
         6e:bb:53:3a:bb:38:2a:2e:f3:51:24:18:77:e3:ec:13:41:7a:
         ca:0e:70:ac:f4:79:84:ac:b7:02:42:14:7f:9a:dd:00:7e:b9:
         f3:e3:b4:83:aa:66:64:4e
-----BEGIN CERTIFICATE-----
MIIFbzCCA1egAwIBAgIBATANBgkqhkiG9w0BAQsFADBjMQswCQYDVQQGEwJVUzEP
MA0GA1UECAwGRGVuaWFsMQ8wDQYDVQQHDAZCb3N0b24xFTATBgNVBAoMDEV1Z2Vu
ZXMgVGVjaDEbMBkGA1UEAwwSS292YWxldiBTeXN0ZW1zIENBMB4XDTE4MDIxOTA3
MzMxMloXDTE5MDIxOTA3MzMxMlowWDELMAkGA1UEBhMCVVMxDzANBgNVBAgMBkRl
bmlhbDEPMA0GA1UEBwwGQm9zdG9uMRUwEwYDVQQKDAxFdWdlbmVzIFRlY2gxEDAO
BgNVBAMMB01hbGxvcnkwggIiMA0GCSqGSIb3DQEBAQUAA4ICDwAwggIKAoICAQC6
a7QIxDXlvvOPO3UsBjQZTac8ZI0aTHZ4ZpC8W8NMUCyuEyOgm5w3v8hyKYEMrroH
eH0ie8L3RpT65W0L5+rCI2zWS325CI8GG59uvlwMKfkK/xFbf59gZ/lVG76zDy3n
uWT09tE86yk5juErdmLdakE51MEOkQShl8ZoDYaSKcBrudK9I+uESVbCH6DUqLbh
FAo8e6rqo3pmFaXr8sFOwfPp2QCZSHeUFtT1/LPn6muGxGkozeVuHL1vMKzCtD9J
/aUXLUfgFgbMOvnP20ZyQHy76N/sk58rPJ29pRCdhWl9bExqTfZ8J21tsqy1KL1n
9Ziq9+1a2XU48tjR8eSUp8//xhhdrIDj7IxWSbVn8nk6cA3n25W8wV0N4rrP5gZy
JI9H/27CgucvCziRnfPdLgZaxxmBfaKWA0CaSY/gJDaAy1mvhBCdX+2/cdJDsTj7
5j89FjeADuuaNmDPBEiAjjVNuw1f1HURYmM64bU5Qstpvk7VU2UfCf4ZbaPTqwHw
e/4NPRp4w/S2HXfimwSWq0XEc2k7nS8+4qJsX0uJz+XlTift3peUtyoUge3HhQUA
FdiPf7ufPjoFT8Fpui/3osWBdDbvqwx3HV0rVTy1Ny9iPvXe2KYsxxAWf67pKUgq
/DGu2/aUvtiIs3TcJjnszSq4lHI3e4zGnDSKv7He7QIDAQABozkwNzAJBgNVHRME
AjAAMAsGA1UdDwQEAwIFoDAdBgNVHQ4EFgQURw0BFYX8dD3p4Z1fe+LXASMM+HYw
DQYJKoZIhvcNAQELBQADggIBAEwP1NhKhtzqnlTuqY+U1NKJvFCrZS9Dotb4f35A
dYtHvPzbgNuggJey0Q8s6DybnhNmWl/nX87Wj8o3zv0CfRSiInc9CbwXjItlIcjQ
kzGbm8iiflpMOHcePdNmT+5CMyuoZoDVcB8CBFRCT8dvR9WPii80jcgTRedyWM0J
FHdpUjIHTSrTTr/6NCBnM3r1AiIDnqv0mfp8+bqHUVMmO8+SBZzAQ4gUDlPNuIPQ
zoVkgFmAM/2425+pb0vthP49+BX0nBvuXrrZBlBvMQNXLW8V+N1EZruBBFgX9w97
hlF7kLvbqtqdxa83X0B3iKqFP+XBIx8JvQo6NzQto/PKliPdaeqYsKFGejzEjg6S
1/JT/lH2gNSVUstP9u8oGhToguNL1S7cuY/rxSY1Yz9hIFGO/pNxPvba/5iG26oC
kl6+DZ6H0JrThhvwF9F3YCC6x6peoha3rcW2cwRiuXVuzpgTYcgYY+3OhSqtag0y
ScTEtEKlHK6OwQh+cWJPnRifvIuXFpQFyZbslTaC3DDMzzy1ffEY5wNcBngYMPcW
Ry5vjQf31du+SUs/xu0ujK30IoE9tcanS5A5EyLM+qf8sJYlPM2+iR5wcK+3hZg7
0UvpZZERK267Uzq7OCou81EkGHfj7BNBesoOcKz0eYSstwJCFH+a3QB+ufPjtIOq
ZmRO
-----END CERTIFICATE-----
