Certificate:
    Data:
        Version: 3 (0x2)
        Serial Number: 15 (0xf)
    Signature Algorithm: sha256WithRSAEncryption
        Issuer: C=US, ST=Denial, L=Boston, O=Eugenes Tech, CN=Kovalev Systems CA
        Validity
            Not Before: Feb 19 06:57:21 2018 GMT
            Not After : Feb 19 06:57:21 2019 GMT
        Subject: C=US, ST=Denial, L=Boston, O=Eugenes Tech, CN=Alice
        Subject Public Key Info:
            Public Key Algorithm: rsaEncryption
                Public-Key: (4096 bit)
                Modulus:
                    00:cb:16:71:df:10:3a:8e:c3:bf:37:0b:54:93:2b:
                    04:27:f9:21:21:6c:53:62:53:2a:5a:bd:01:c4:14:
                    51:f7:bc:dc:46:e2:d0:8c:ae:01:4f:4f:c3:cb:3a:
                    88:e7:8e:ef:7d:e3:c7:46:3a:8f:2b:0c:43:ba:d4:
                    89:ba:02:31:cc:51:9b:14:f5:a3:2b:78:52:25:e5:
                    7c:42:74:b1:9a:bc:48:49:f8:31:86:3f:68:aa:02:
                    80:3b:4a:59:a8:52:d7:ba:63:88:5b:a9:c1:a2:7b:
                    11:29:ea:31:8f:fb:65:63:51:59:5f:ec:28:c6:e1:
                    bd:29:c0:3a:68:c0:7b:64:b8:e8:ae:92:ad:8d:d2:
                    ce:2d:64:7c:2f:cd:54:72:8f:52:db:a2:87:f0:9a:
                    41:88:58:41:df:f0:91:86:dc:68:d6:d6:50:cf:59:
                    6c:a2:1b:43:a1:6c:76:f2:92:59:ca:fc:97:b1:cb:
                    f0:27:74:e9:70:ca:0f:ae:06:e9:30:41:4b:78:0c:
                    31:44:d9:3f:f9:d3:6a:a3:1b:a7:df:0c:58:78:a3:
                    af:e2:a0:dd:6f:ff:d3:74:20:48:16:d6:f9:5f:dd:
                    e7:97:3a:fe:b8:53:23:28:a2:8c:0b:23:31:bd:04:
                    1c:b9:f1:c5:9b:5e:ff:fe:5a:5b:c6:56:8c:3a:02:
                    f4:68:39:56:c2:d3:85:f1:bf:d2:ae:fc:60:f2:f8:
                    35:61:9b:88:72:fa:ae:f5:4e:cb:ad:66:d3:17:95:
                    90:16:f8:ab:11:71:05:3b:6b:c9:67:25:59:20:27:
                    0f:25:54:ca:40:17:ec:31:2e:33:2b:17:21:40:69:
                    d3:c7:60:d1:da:5c:ad:4d:27:6b:40:ca:5e:05:9a:
                    5e:32:d7:fd:95:9b:cf:2c:4e:27:c4:13:0f:e6:d2:
                    75:0d:20:b5:0c:71:e3:a6:41:14:16:d1:47:44:c0:
                    cf:39:de:fe:d5:df:7a:cb:be:3a:51:2b:04:dd:14:
                    24:80:76:d5:22:a7:6e:dd:8a:b5:0c:0c:70:00:31:
                    2b:ec:d2:6a:f2:d7:f4:05:38:89:e0:0c:f9:d8:fa:
                    00:83:8e:a6:41:b3:fc:00:ab:dd:dd:f6:3f:8e:ff:
                    05:26:25:cd:d8:6e:47:24:5d:23:78:1a:81:0c:41:
                    6d:38:14:5c:0f:f1:3d:8b:bb:6a:bf:70:01:29:93:
                    69:b4:6c:1f:84:67:20:e3:17:27:08:cb:e7:7c:95:
                    36:5f:ca:aa:24:20:db:5d:b3:91:07:be:31:b2:72:
                    38:36:a8:a7:38:a4:91:5d:70:6c:87:dd:63:ab:9a:
                    15:41:6e:d1:0b:1a:f5:e1:74:89:b8:4d:dc:26:25:
                    a3:cc:c1
                Exponent: 65537 (0x10001)
        X509v3 extensions:
            X509v3 Basic Constraints: 
                CA:FALSE
            X509v3 Key Usage: 
                Digital Signature, Key Encipherment
            X509v3 Subject Key Identifier: 
                5F:F0:C8:EB:02:28:27:21:B9:CC:6A:0E:72:D5:DC:B5:26:BF:52:99
    Signature Algorithm: sha256WithRSAEncryption
         b5:bb:1e:35:33:c1:b3:7b:fd:ba:aa:9c:70:ad:3d:39:47:c5:
         7f:ea:89:24:38:06:5a:d5:69:0c:f0:72:3a:d8:6e:c0:09:c0:
         bd:d0:b1:33:cd:d6:0b:6e:1f:7a:d5:74:7f:c7:97:be:43:0f:
         23:fd:dc:cd:05:e4:8f:38:30:f0:3a:fe:4f:92:8e:16:f3:de:
         27:1f:ff:e6:1b:96:14:de:b2:cc:c3:99:29:ca:8c:a0:13:1b:
         fe:9d:5c:50:98:2f:a0:53:71:71:ba:2b:7e:74:ca:35:bc:d8:
         da:ee:f0:70:2d:c6:c4:42:1f:99:46:38:63:f1:33:59:f4:37:
         04:f0:48:3c:07:1c:94:95:f8:2e:3a:72:3b:48:9b:21:cb:8f:
         ce:a8:73:29:df:38:c8:60:99:83:80:0d:37:de:a1:bc:05:5e:
         ec:64:a1:34:86:3c:6d:d9:07:65:11:3a:06:ec:28:a2:2b:82:
         fc:56:92:26:d1:74:50:0a:8b:2b:95:38:2d:3d:df:51:bd:27:
         73:2e:70:26:33:4c:87:5b:f7:d2:11:50:38:1b:69:d0:7d:e5:
         8f:04:c0:3f:44:e5:ad:a8:d0:92:02:c5:b7:21:c0:92:92:96:
         a7:d0:a1:f7:35:15:9a:78:b0:3d:91:7e:c3:18:3c:b5:7f:9c:
         6c:df:20:da:cc:2c:ba:ac:c6:0c:ce:46:1e:4b:ca:26:5d:7e:
         06:79:fc:39:85:c2:80:9b:e4:03:39:51:3a:1c:81:c4:f8:c5:
         c5:23:c5:77:95:95:67:a1:14:cf:30:7b:7a:6d:3e:9c:b5:5a:
         00:9b:d5:08:4d:d9:46:7b:69:6c:d2:c5:dc:50:3b:55:3e:56:
         06:49:54:80:91:5f:a0:b6:a2:92:51:73:43:fd:ff:3e:ed:78:
         18:15:87:47:a9:3f:a9:75:74:37:d6:0f:b7:b1:81:52:9f:27:
         89:f3:25:5e:0c:4b:e5:f7:d0:eb:7f:6b:0e:2d:cb:34:6c:06:
         8f:3e:d3:f3:ed:16:a9:b6:06:aa:59:75:3c:b8:bc:ad:4f:cd:
         94:b8:f1:b7:8c:52:be:5e:98:0c:4c:75:1a:99:2f:2f:70:d6:
         f3:87:d5:fe:18:94:b0:e8:09:fb:1a:0c:d4:82:32:b3:7e:b5:
         62:be:05:7d:1f:d6:6c:08:ae:ae:75:cd:43:02:e0:82:91:fd:
         76:4c:d6:c4:b8:4e:2d:cd:02:2b:d5:50:8f:92:eb:05:24:a3:
         8f:7f:09:b1:17:5b:ab:97:9d:df:bd:1c:e6:11:3e:2b:3f:44:
         7e:80:1d:42:d4:31:21:19:1d:b1:fa:cf:ea:17:87:11:4f:9b:
         3d:c8:29:bf:d1:a0:cc:ef
-----BEGIN CERTIFICATE-----
MIIFbTCCA1WgAwIBAgIBDzANBgkqhkiG9w0BAQsFADBjMQswCQYDVQQGEwJVUzEP
MA0GA1UECAwGRGVuaWFsMQ8wDQYDVQQHDAZCb3N0b24xFTATBgNVBAoMDEV1Z2Vu
ZXMgVGVjaDEbMBkGA1UEAwwSS292YWxldiBTeXN0ZW1zIENBMB4XDTE4MDIxOTA2
NTcyMVoXDTE5MDIxOTA2NTcyMVowVjELMAkGA1UEBhMCVVMxDzANBgNVBAgMBkRl
bmlhbDEPMA0GA1UEBwwGQm9zdG9uMRUwEwYDVQQKDAxFdWdlbmVzIFRlY2gxDjAM
BgNVBAMMBUFsaWNlMIICIjANBgkqhkiG9w0BAQEFAAOCAg8AMIICCgKCAgEAyxZx
3xA6jsO/NwtUkysEJ/khIWxTYlMqWr0BxBRR97zcRuLQjK4BT0/DyzqI547vfePH
RjqPKwxDutSJugIxzFGbFPWjK3hSJeV8QnSxmrxISfgxhj9oqgKAO0pZqFLXumOI
W6nBonsRKeoxj/tlY1FZX+woxuG9KcA6aMB7ZLjorpKtjdLOLWR8L81Uco9S26KH
8JpBiFhB3/CRhtxo1tZQz1lsohtDoWx28pJZyvyXscvwJ3TpcMoPrgbpMEFLeAwx
RNk/+dNqoxun3wxYeKOv4qDdb//TdCBIFtb5X93nlzr+uFMjKKKMCyMxvQQcufHF
m17//lpbxlaMOgL0aDlWwtOF8b/Srvxg8vg1YZuIcvqu9U7LrWbTF5WQFvirEXEF
O2vJZyVZICcPJVTKQBfsMS4zKxchQGnTx2DR2lytTSdrQMpeBZpeMtf9lZvPLE4n
xBMP5tJ1DSC1DHHjpkEUFtFHRMDPOd7+1d96y746USsE3RQkgHbVIqdu3Yq1DAxw
ADEr7NJq8tf0BTiJ4Az52PoAg46mQbP8AKvd3fY/jv8FJiXN2G5HJF0jeBqBDEFt
OBRcD/E9i7tqv3ABKZNptGwfhGcg4xcnCMvnfJU2X8qqJCDbXbORB74xsnI4Nqin
OKSRXXBsh91jq5oVQW7RCxr14XSJuE3cJiWjzMECAwEAAaM5MDcwCQYDVR0TBAIw
ADALBgNVHQ8EBAMCBaAwHQYDVR0OBBYEFF/wyOsCKCchucxqDnLV3LUmv1KZMA0G
CSqGSIb3DQEBCwUAA4ICAQC1ux41M8Gze/26qpxwrT05R8V/6okkOAZa1WkM8HI6
2G7ACcC90LEzzdYLbh961XR/x5e+Qw8j/dzNBeSPODDwOv5Pko4W894nH//mG5YU
3rLMw5kpyoygExv+nVxQmC+gU3Fxuit+dMo1vNja7vBwLcbEQh+ZRjhj8TNZ9DcE
8Eg8BxyUlfguOnI7SJshy4/OqHMp3zjIYJmDgA033qG8BV7sZKE0hjxt2QdlEToG
7CiiK4L8VpIm0XRQCosrlTgtPd9RvSdzLnAmM0yHW/fSEVA4G2nQfeWPBMA/ROWt
qNCSAsW3IcCSkpan0KH3NRWaeLA9kX7DGDy1f5xs3yDazCy6rMYMzkYeS8omXX4G
efw5hcKAm+QDOVE6HIHE+MXFI8V3lZVnoRTPMHt6bT6ctVoAm9UITdlGe2ls0sXc
UDtVPlYGSVSAkV+gtqKSUXND/f8+7XgYFYdHqT+pdXQ31g+3sYFSnyeJ8yVeDEvl
99Drf2sOLcs0bAaPPtPz7RaptgaqWXU8uLytT82UuPG3jFK+XpgMTHUamS8vcNbz
h9X+GJSw6An7GgzUgjKzfrVivgV9H9ZsCK6udc1DAuCCkf12TNbEuE4tzQIr1VCP
kusFJKOPfwmxF1url53fvRzmET4rP0R+gB1C1DEhGR2x+s/qF4cRT5s9yCm/0aDM
7w==
-----END CERTIFICATE-----
