Certificate:
    Data:
        Version: 3 (0x2)
        Serial Number: 14 (0xe)
    Signature Algorithm: sha256WithRSAEncryption
        Issuer: C=US, ST=Denial, L=Boston, O=Eugenes Tech, CN=Kovalev Systems CA
        Validity
            Not Before: Feb 19 06:10:05 2018 GMT
            Not After : Feb 19 06:10:05 2019 GMT
        Subject: C=US, ST=Denial, L=Boston, O=Eugenes Tech, CN=Eugenes Test Server
        Subject Public Key Info:
            Public Key Algorithm: rsaEncryption
                Public-Key: (4096 bit)
                Modulus:
                    00:a6:52:d6:25:4e:0d:05:3f:d5:85:36:12:7c:7b:
                    d5:3c:1e:a9:12:d4:dc:49:49:ab:e9:49:68:eb:a2:
                    3a:13:52:0a:78:5f:d7:07:07:df:07:a2:8f:8b:ef:
                    4d:76:99:6c:7c:17:2a:8b:f7:e5:86:94:41:04:a0:
                    27:a9:6d:20:8e:86:69:45:4d:51:05:cf:8d:10:8e:
                    a5:4f:5b:e7:74:5d:bb:97:e7:d2:bc:a3:e9:22:3f:
                    6e:69:03:39:6c:18:17:5d:55:c9:d8:4e:9b:c6:37:
                    6c:fc:e1:cf:32:0f:cb:5a:91:2c:bc:5c:eb:8a:75:
                    42:1c:72:5a:1e:10:91:d8:6d:dc:73:59:f1:8c:14:
                    b1:96:ff:0d:d5:e0:6c:5e:b4:e8:87:54:a6:d2:91:
                    07:59:43:3d:35:25:ba:e5:74:62:92:fd:5c:d2:9c:
                    b6:09:d1:d0:48:bb:f7:f3:0c:bf:ec:88:5a:bf:13:
                    e2:02:ff:c2:b3:68:8c:fe:55:fd:8e:96:1b:dd:bc:
                    91:5b:0c:fa:c3:c3:99:95:d2:21:33:ee:9c:30:50:
                    e6:37:14:47:00:36:12:c8:bf:72:d1:d1:6f:ce:ee:
                    34:9d:a7:fb:af:7c:cc:40:34:1a:5f:9b:33:cf:f4:
                    b5:d7:6d:df:d8:05:95:72:17:38:19:e7:21:f8:28:
                    56:70:ee:34:f4:28:6f:c2:ca:64:ee:0d:1a:c6:6a:
                    84:61:33:e1:ef:e9:a6:93:a3:43:26:b6:15:e7:30:
                    4b:c0:5e:93:81:40:04:0f:24:f9:ae:8e:63:70:85:
                    7e:22:15:0e:53:65:49:8f:89:c4:3b:d9:b6:92:43:
                    ff:d3:21:f9:ca:be:af:b0:22:11:3c:4e:17:4c:30:
                    84:a8:13:47:1f:02:8b:1d:e5:ce:a9:bb:9c:8d:19:
                    09:5d:83:25:0c:a0:9a:e7:f1:ea:a3:67:3b:30:bb:
                    ff:93:30:fb:1d:fa:f5:f0:02:05:a5:9f:b9:cb:88:
                    f8:1f:50:8f:ff:2a:eb:38:83:2d:15:e9:32:9a:94:
                    e5:5e:17:8e:86:24:67:1b:25:4a:3b:55:6c:b5:cf:
                    e3:7e:f7:ae:8a:db:7c:3a:70:ff:7e:18:94:45:cf:
                    44:3f:e8:b6:40:67:09:0f:5c:98:8c:ad:03:05:fa:
                    06:f6:b3:13:3e:86:c0:1b:82:5e:d8:e5:f8:ec:dd:
                    b9:6f:28:cf:e6:b4:35:c7:4f:98:9a:23:1f:71:43:
                    59:7c:f8:1d:2c:32:f7:6e:d3:66:38:12:ae:f4:fc:
                    e8:59:7a:a9:a5:ee:10:ee:57:32:af:4b:d6:5e:6d:
                    2a:74:55:8d:0a:06:8b:a2:78:32:a4:01:64:d1:1e:
                    4d:39:b7
                Exponent: 65537 (0x10001)
        X509v3 extensions:
            X509v3 Basic Constraints: 
                CA:FALSE
            X509v3 Key Usage: 
                Digital Signature, Key Encipherment
            X509v3 Subject Alternative Name: 
                DNS:localhost
            X509v3 Subject Key Identifier: 
                71:98:57:4B:84:26:64:21:B3:07:1F:D9:24:B9:2A:F6:BE:08:4A:6A
    Signature Algorithm: sha256WithRSAEncryption
         c3:04:e8:38:91:ca:9c:c6:9c:d4:6b:8d:fd:25:a8:2d:bc:8c:
         49:ba:3e:38:ed:4d:10:9e:1f:ee:15:53:88:4a:4b:d9:2f:1c:
         d7:dd:d7:b8:a8:2d:06:cd:29:f7:5c:7b:20:91:05:4e:aa:9b:
         00:19:fc:6b:9c:1c:a5:c5:a9:6b:62:90:a3:13:fc:fc:0d:53:
         de:f5:05:90:a1:73:89:45:e1:46:64:0e:43:55:a4:ed:40:3c:
         3d:28:9c:35:5b:fc:f2:bd:e1:da:f5:93:b3:b4:41:da:9f:45:
         79:c6:f1:96:16:41:55:bf:6e:47:be:10:a0:e6:6e:79:02:c2:
         17:73:0f:de:f6:d2:9e:0d:ca:e8:70:5a:15:21:7d:e0:8e:58:
         2b:bc:58:25:42:30:81:9d:e5:e2:db:04:c7:ec:c7:56:f0:b0:
         ce:a6:1a:46:df:43:2d:1d:8b:03:4b:93:11:9c:37:22:8e:7e:
         c0:9a:7c:63:2b:4f:3c:40:67:20:d9:24:ce:cc:01:92:89:36:
         91:f6:b7:c6:35:a6:e7:d9:a7:c0:68:61:f3:b1:5f:c7:a1:33:
         be:38:f9:8b:6b:2a:96:c3:31:94:c0:cf:38:40:df:19:70:b6:
         26:a4:d3:c2:97:3d:8c:72:67:37:42:51:f4:fc:7a:9f:f1:d4:
         5c:24:55:64:ae:34:01:fe:c6:4f:52:d3:5a:be:7e:4a:50:ce:
         2d:43:cc:f7:d7:70:43:09:ed:02:10:c8:31:b2:73:3a:06:29:
         47:53:45:e4:53:ba:46:c5:9d:82:4d:c9:ba:78:0e:86:00:88:
         67:33:4e:04:a7:d7:bf:91:89:cb:32:8a:53:0e:96:89:27:9d:
         e1:ae:4b:2c:16:93:35:97:70:2a:53:65:ea:ce:c3:98:82:76:
         37:68:b7:8e:69:83:e9:c6:11:ad:5a:03:20:a7:4e:c2:df:6f:
         22:32:2f:52:62:60:2f:86:44:d8:d3:ae:31:16:aa:d1:ec:49:
         4d:49:45:08:63:4b:2c:6e:28:ec:7d:02:21:e0:00:4b:ee:6e:
         ae:73:6a:1f:3f:91:ad:b6:f4:53:a8:25:05:16:28:48:2d:9a:
         fb:06:71:c9:78:a3:9e:7b:de:38:de:83:2f:a1:b4:b4:17:89:
         aa:c4:b0:be:3a:b8:b2:a8:8c:82:a5:c1:cc:e3:2e:8e:1f:a8:
         2e:2b:8e:81:df:99:63:6c:d5:ed:e6:f2:fa:cf:44:62:79:28:
         78:02:f9:a6:51:cb:76:1d:13:f7:eb:70:cd:b2:69:25:7d:05:
         96:fe:72:7f:68:68:a6:1e:79:42:da:82:6a:49:66:2e:34:99:
         8c:b7:e8:d5:b3:9f:8c:4b
-----BEGIN CERTIFICATE-----
MIIFkTCCA3mgAwIBAgIBDjANBgkqhkiG9w0BAQsFADBjMQswCQYDVQQGEwJVUzEP
MA0GA1UECAwGRGVuaWFsMQ8wDQYDVQQHDAZCb3N0b24xFTATBgNVBAoMDEV1Z2Vu
ZXMgVGVjaDEbMBkGA1UEAwwSS292YWxldiBTeXN0ZW1zIENBMB4XDTE4MDIxOTA2
MTAwNVoXDTE5MDIxOTA2MTAwNVowZDELMAkGA1UEBhMCVVMxDzANBgNVBAgMBkRl
bmlhbDEPMA0GA1UEBwwGQm9zdG9uMRUwEwYDVQQKDAxFdWdlbmVzIFRlY2gxHDAa
BgNVBAMME0V1Z2VuZXMgVGVzdCBTZXJ2ZXIwggIiMA0GCSqGSIb3DQEBAQUAA4IC
DwAwggIKAoICAQCmUtYlTg0FP9WFNhJ8e9U8HqkS1NxJSavpSWjrojoTUgp4X9cH
B98Hoo+L7012mWx8FyqL9+WGlEEEoCepbSCOhmlFTVEFz40QjqVPW+d0XbuX59K8
o+kiP25pAzlsGBddVcnYTpvGN2z84c8yD8takSy8XOuKdUIccloeEJHYbdxzWfGM
FLGW/w3V4GxetOiHVKbSkQdZQz01JbrldGKS/VzSnLYJ0dBIu/fzDL/siFq/E+IC
/8KzaIz+Vf2OlhvdvJFbDPrDw5mV0iEz7pwwUOY3FEcANhLIv3LR0W/O7jSdp/uv
fMxANBpfmzPP9LXXbd/YBZVyFzgZ5yH4KFZw7jT0KG/CymTuDRrGaoRhM+Hv6aaT
o0MmthXnMEvAXpOBQAQPJPmujmNwhX4iFQ5TZUmPicQ72baSQ//TIfnKvq+wIhE8
ThdMMISoE0cfAosd5c6pu5yNGQldgyUMoJrn8eqjZzswu/+TMPsd+vXwAgWln7nL
iPgfUI//Kus4gy0V6TKalOVeF46GJGcbJUo7VWy1z+N+966K23w6cP9+GJRFz0Q/
6LZAZwkPXJiMrQMF+gb2sxM+hsAbgl7Y5fjs3blvKM/mtDXHT5iaIx9xQ1l8+B0s
Mvdu02Y4Eq70/OhZeqml7hDuVzKvS9ZebSp0VY0KBouieDKkAWTRHk05twIDAQAB
o08wTTAJBgNVHRMEAjAAMAsGA1UdDwQEAwIFoDAUBgNVHREEDTALgglsb2NhbGhv
c3QwHQYDVR0OBBYEFHGYV0uEJmQhswcf2SS5Kva+CEpqMA0GCSqGSIb3DQEBCwUA
A4ICAQDDBOg4kcqcxpzUa439JagtvIxJuj447U0Qnh/uFVOISkvZLxzX3de4qC0G
zSn3XHsgkQVOqpsAGfxrnBylxalrYpCjE/z8DVPe9QWQoXOJReFGZA5DVaTtQDw9
KJw1W/zyveHa9ZOztEHan0V5xvGWFkFVv25HvhCg5m55AsIXcw/e9tKeDcrocFoV
IX3gjlgrvFglQjCBneXi2wTH7MdW8LDOphpG30MtHYsDS5MRnDcijn7AmnxjK088
QGcg2STOzAGSiTaR9rfGNabn2afAaGHzsV/HoTO+OPmLayqWwzGUwM84QN8ZcLYm
pNPClz2Mcmc3QlH0/Hqf8dRcJFVkrjQB/sZPUtNavn5KUM4tQ8z313BDCe0CEMgx
snM6BilHU0XkU7pGxZ2CTcm6eA6GAIhnM04Ep9e/kYnLMopTDpaJJ53hrkssFpM1
l3AqU2XqzsOYgnY3aLeOaYPpxhGtWgMgp07C328iMi9SYmAvhkTY064xFqrR7ElN
SUUIY0ssbijsfQIh4ABL7m6uc2ofP5GttvRTqCUFFihILZr7BnHJeKOee9443oMv
obS0F4mqxLC+OriyqIyCpcHM4y6OH6guK46B35ljbNXt5vL6z0RieSh4AvmmUct2
HRP363DNsmklfQWW/nJ/aGimHnlC2oJqSWYuNJmMt+jVs5+MSw==
-----END CERTIFICATE-----
